target datalayout = "e-m:e-p270:32:32-p271:32:32-p272:64:64-i64:64-i128:128-f80:128-n8:16:32:64-S128"
target triple = "x86_64-pc-linux-gnu"

%struct.asn1_pctx_st = type { i64, i64, i64, i64, i64 }

@asn1_print_fsname.spaces = internal constant [21 x i8] c"                    \00", align 16
@.str.9 = private unnamed_addr constant [6 x i8] c" (%s)\00", align 1
@.str.10 = private unnamed_addr constant [3 x i8] c": \00", align 1

; Function Attrs: nounwind uwtable
define internal i32 @asn1_print_fsname(ptr noundef %0, i32 noundef %1, ptr noundef %2, ptr noundef %3, ptr noundef %4) #0 {
  %6 = alloca i32, align 4
  %7 = alloca ptr, align 8
  %8 = alloca i32, align 4
  %9 = alloca ptr, align 8
  %10 = alloca ptr, align 8
  %11 = alloca ptr, align 8
  store ptr %0, ptr %7, align 8, !tbaa !16
  store i32 %1, ptr %8, align 4, !tbaa !20
  store ptr %2, ptr %9, align 8, !tbaa !24
  store ptr %3, ptr %10, align 8, !tbaa !24
  store ptr %4, ptr %11, align 8, !tbaa !3
  br label %12

12:                                               ; preds = %20, %5
  %13 = load i32, ptr %8, align 4, !tbaa !20
  %14 = icmp sgt i32 %13, 20
  br i1 %14, label %15, label %23

15:                                               ; preds = %12
  %16 = load ptr, ptr %7, align 8, !tbaa !16
  %17 = call i32 @BIO_write(ptr noundef %16, ptr noundef @asn1_print_fsname.spaces, i32 noundef 20)
  %18 = icmp ne i32 %17, 20
  br i1 %18, label %19, label %20

19:                                               ; preds = %15
  store i32 0, ptr %6, align 4
  br label %88

20:                                               ; preds = %15
  %21 = load i32, ptr %8, align 4, !tbaa !20
  %22 = sub nsw i32 %21, 20
  store i32 %22, ptr %8, align 4, !tbaa !20
  br label %12, !llvm.loop !54

23:                                               ; preds = %12
  %24 = load ptr, ptr %7, align 8, !tbaa !16
  %25 = load i32, ptr %8, align 4, !tbaa !20
  %26 = call i32 @BIO_write(ptr noundef %24, ptr noundef @asn1_print_fsname.spaces, i32 noundef %25)
  %27 = load i32, ptr %8, align 4, !tbaa !20
  %28 = icmp ne i32 %26, %27
  br i1 %28, label %29, label %30

29:                                               ; preds = %23
  store i32 0, ptr %6, align 4
  br label %88

30:                                               ; preds = %23
  %31 = load ptr, ptr %11, align 8, !tbaa !3
  %32 = getelementptr inbounds nuw %struct.asn1_pctx_st, ptr %31, i32 0, i32 0
  %33 = load i64, ptr %32, align 8, !tbaa !8
  %34 = and i64 %33, 256
  %35 = icmp ne i64 %34, 0
  br i1 %35, label %36, label %37

36:                                               ; preds = %30
  store ptr null, ptr %10, align 8, !tbaa !24
  br label %37

37:                                               ; preds = %36, %30
  %38 = load ptr, ptr %11, align 8, !tbaa !3
  %39 = getelementptr inbounds nuw %struct.asn1_pctx_st, ptr %38, i32 0, i32 0
  %40 = load i64, ptr %39, align 8, !tbaa !8
  %41 = and i64 %40, 64
  %42 = icmp ne i64 %41, 0
  br i1 %42, label %43, label %44

43:                                               ; preds = %37
  store ptr null, ptr %9, align 8, !tbaa !24
  br label %44

44:                                               ; preds = %43, %37
  %45 = load ptr, ptr %10, align 8, !tbaa !24
  %46 = icmp ne ptr %45, null
  br i1 %46, label %51, label %47

47:                                               ; preds = %44
  %48 = load ptr, ptr %9, align 8, !tbaa !24
  %49 = icmp ne ptr %48, null
  br i1 %49, label %51, label %50

50:                                               ; preds = %47
  store i32 1, ptr %6, align 4
  br label %88

51:                                               ; preds = %47, %44
  %52 = load ptr, ptr %9, align 8, !tbaa !24
  %53 = icmp ne ptr %52, null
  br i1 %53, label %54, label %61

54:                                               ; preds = %51
  %55 = load ptr, ptr %7, align 8, !tbaa !16
  %56 = load ptr, ptr %9, align 8, !tbaa !24
  %57 = call i32 @BIO_puts(ptr noundef %55, ptr noundef %56)
  %58 = icmp sle i32 %57, 0
  br i1 %58, label %59, label %60

59:                                               ; preds = %54
  store i32 0, ptr %6, align 4
  br label %88

60:                                               ; preds = %54
  br label %61

61:                                               ; preds = %60, %51
  %62 = load ptr, ptr %10, align 8, !tbaa !24
  %63 = icmp ne ptr %62, null
  br i1 %63, label %64, label %82

64:                                               ; preds = %61
  %65 = load ptr, ptr %9, align 8, !tbaa !24
  %66 = icmp ne ptr %65, null
  br i1 %66, label %67, label %74

67:                                               ; preds = %64
  %68 = load ptr, ptr %7, align 8, !tbaa !16
  %69 = load ptr, ptr %10, align 8, !tbaa !24
  %70 = call i32 (ptr, ptr, ...) @BIO_printf(ptr noundef %68, ptr noundef @.str.9, ptr noundef %69)
  %71 = icmp sle i32 %70, 0
  br i1 %71, label %72, label %73

72:                                               ; preds = %67
  store i32 0, ptr %6, align 4
  br label %88

73:                                               ; preds = %67
  br label %81

74:                                               ; preds = %64
  %75 = load ptr, ptr %7, align 8, !tbaa !16
  %76 = load ptr, ptr %10, align 8, !tbaa !24
  %77 = call i32 @BIO_puts(ptr noundef %75, ptr noundef %76)
  %78 = icmp sle i32 %77, 0
  br i1 %78, label %79, label %80

79:                                               ; preds = %74
  store i32 0, ptr %6, align 4
  br label %88

80:                                               ; preds = %74
  br label %81

81:                                               ; preds = %80, %73
  br label %82

82:                                               ; preds = %81, %61
  %83 = load ptr, ptr %7, align 8, !tbaa !16
  %84 = call i32 @BIO_write(ptr noundef %83, ptr noundef @.str.10, i32 noundef 2)
  %85 = icmp ne i32 %84, 2
  br i1 %85, label %86, label %87

86:                                               ; preds = %82
  store i32 0, ptr %6, align 4
  br label %88

87:                                               ; preds = %82
  store i32 1, ptr %6, align 4
  br label %88

88:                                               ; preds = %87, %86, %79, %72, %59, %50, %29, %19
  %89 = load i32, ptr %6, align 4
  ret i32 %89
}