; Function Attrs: nounwind uwtable
define internal fastcc range(i32 0, 2) i32 @asn1_print_fsname(ptr noundef %0, i32 noundef %1, ptr noundef %2, ptr noundef %3, ptr noundef readonly captures(none) %4) unnamed_addr #0 {
  %6 = icmp sgt i32 %1, 20
  br i1 %6, label %.lr.ph, label %._crit_edge

.lr.ph:                                           ; preds = %5, %8
  %.02330 = phi i32 [ %9, %8 ], [ %1, %5 ]
  %7 = tail call i32 @BIO_write(ptr noundef %0, ptr noundef nonnull @asn1_print_fsname.spaces, i32 noundef 20) #5
  %.not27 = icmp eq i32 %7, 20
  br i1 %.not27, label %8, label %.loopexit

8:                                                ; preds = %.lr.ph
  %9 = add nsw i32 %.02330, -20
  %10 = icmp sgt i32 %.02330, 40
  br i1 %10, label %.lr.ph, label %._crit_edge, !llvm.loop !48

._crit_edge:                                      ; preds = %8, %5
  %.023.lcssa = phi i32 [ %1, %5 ], [ %9, %8 ]
  %11 = tail call i32 @BIO_write(ptr noundef %0, ptr noundef nonnull @asn1_print_fsname.spaces, i32 noundef %.023.lcssa) #5
  %.not = icmp eq i32 %11, %.023.lcssa
  br i1 %.not, label %12, label %.loopexit

12:                                               ; preds = %._crit_edge
  %13 = load i64, ptr %4, align 8, !tbaa !3
  %14 = and i64 %13, 256
  %.not24 = icmp eq i64 %14, 0
  %spec.select = select i1 %.not24, ptr %3, ptr null
  %15 = and i64 %13, 64
  %.not25 = icmp eq i64 %15, 0
  %.022 = select i1 %.not25, ptr %2, ptr null
  %16 = icmp ne ptr %spec.select, null
  %17 = icmp ne ptr %.022, null
  %or.cond = or i1 %16, %17
  br i1 %or.cond, label %18, label %.loopexit

18:                                               ; preds = %12
  br i1 %17, label %19, label %.thread

19:                                               ; preds = %18
  %20 = tail call i32 @BIO_puts(ptr noundef %0, ptr noundef nonnull %.022) #5
  %21 = icmp slt i32 %20, 1
  br i1 %21, label %.loopexit, label %22

22:                                               ; preds = %19
  br i1 %16, label %23, label %29

.thread:                                          ; preds = %18
  br i1 %16, label %26, label %29

23:                                               ; preds = %22
  %24 = tail call i32 (ptr, ptr, ...) @BIO_printf(ptr noundef %0, ptr noundef nonnull @.str.9, ptr noundef nonnull %spec.select) #5
  %25 = icmp slt i32 %24, 1
  br i1 %25, label %.loopexit, label %29

26:                                               ; preds = %.thread
  %27 = tail call i32 @BIO_puts(ptr noundef %0, ptr noundef nonnull %spec.select) #5
  %28 = icmp slt i32 %27, 1
  br i1 %28, label %.loopexit, label %29

29:                                               ; preds = %.thread, %23, %26, %22
  %30 = tail call i32 @BIO_write(ptr noundef %0, ptr noundef nonnull @.str.10, i32 noundef 2) #5
  %.not26 = icmp eq i32 %30, 2
  %. = zext i1 %.not26 to i32
  br label %.loopexit

.loopexit:                                        ; preds = %.lr.ph, %29, %26, %23, %19, %12, %._crit_edge
  %.0 = phi i32 [ 0, %._crit_edge ], [ 1, %12 ], [ 0, %19 ], [ 0, %23 ], [ 0, %26 ], [ %., %29 ], [ 0, %.lr.ph ]
  ret i32 %.0
}